ARM GAS  C:\Users\Lamp\AppData\Local\Temp\cc02uuZL.s 			page 1


   1              		.cpu cortex-m4
   2              		.arch armv7e-m
   3              		.fpu fpv4-sp-d16
   4              		.eabi_attribute 27, 1
   5              		.eabi_attribute 28, 1
   6              		.eabi_attribute 20, 1
   7              		.eabi_attribute 21, 1
   8              		.eabi_attribute 23, 3
   9              		.eabi_attribute 24, 1
  10              		.eabi_attribute 25, 1
  11              		.eabi_attribute 26, 1
  12              		.eabi_attribute 30, 1
  13              		.eabi_attribute 34, 1
  14              		.eabi_attribute 18, 4
  15              		.file	"Blinky1.c"
  16              		.text
  17              	.Ltext0:
  18              		.cfi_sections	.debug_frame
  19              		.file 1 "Core/Src/ActiveObject/Src/Blinky1.c"
  20              		.section	.text.Blinky_dispatch,"ax",%progbits
  21              		.align	1
  22              		.syntax unified
  23              		.thumb
  24              		.thumb_func
  26              	Blinky_dispatch:
  27              	.LVL0:
  28              	.LFB139:
   1:Core/Src/ActiveObject/Src/Blinky1.c **** #include "Blinky1.h"
   2:Core/Src/ActiveObject/Src/Blinky1.c **** 
   3:Core/Src/ActiveObject/Src/Blinky1.c **** extern TIM_HandleTypeDef htim7;
   4:Core/Src/ActiveObject/Src/Blinky1.c **** 
   5:Core/Src/ActiveObject/Src/Blinky1.c **** /**
   6:Core/Src/ActiveObject/Src/Blinky1.c ****  * Hàm này sẽ xử lý khi nhận được sự kiện từ Active Object
   7:Core/Src/ActiveObject/Src/Blinky1.c ****  */
   8:Core/Src/ActiveObject/Src/Blinky1.c **** static void Blinky_dispatch (Blinky1 * const self, Event const * const event) {
  29              		.loc 1 8 79 view -0
  30              		.cfi_startproc
  31              		@ args = 0, pretend = 0, frame = 0
  32              		@ frame_needed = 0, uses_anonymous_args = 0
  33              		.loc 1 8 79 is_stmt 0 view .LVU1
  34 0000 08B5     		push	{r3, lr}
  35              	.LCFI0:
  36              		.cfi_def_cfa_offset 8
  37              		.cfi_offset 3, -8
  38              		.cfi_offset 14, -4
   9:Core/Src/ActiveObject/Src/Blinky1.c ****   switch (event->signal) {
  39              		.loc 1 9 3 is_stmt 1 view .LVU2
  40              		.loc 1 9 16 is_stmt 0 view .LVU3
  41 0002 0B88     		ldrh	r3, [r1]
  42              		.loc 1 9 3 view .LVU4
  43 0004 3BB1     		cbz	r3, .L2
  44 0006 012B     		cmp	r3, #1
  45 0008 08D1     		bne	.L1
  10:Core/Src/ActiveObject/Src/Blinky1.c ****     /**
  11:Core/Src/ActiveObject/Src/Blinky1.c ****      * Đây là Event khi ActiveObject được khởi tạo
  12:Core/Src/ActiveObject/Src/Blinky1.c ****      * trong trường hợp này đang khi được khởi tạo
  13:Core/Src/ActiveObject/Src/Blinky1.c ****      * sẽ bật timer bắt đầu cout
ARM GAS  C:\Users\Lamp\AppData\Local\Temp\cc02uuZL.s 			page 2


  14:Core/Src/ActiveObject/Src/Blinky1.c ****      */
  15:Core/Src/ActiveObject/Src/Blinky1.c ****     case INIT_SIG:
  16:Core/Src/ActiveObject/Src/Blinky1.c ****       HAL_TIM_Base_Start_IT(&htim7); // Bắt đầu Timer với ngắt
  17:Core/Src/ActiveObject/Src/Blinky1.c ****       break;
  18:Core/Src/ActiveObject/Src/Blinky1.c ****     /**
  19:Core/Src/ActiveObject/Src/Blinky1.c ****      * Vì đây là một sự kiện thời gian được post từ timer
  20:Core/Src/ActiveObject/Src/Blinky1.c ****      * nên khi timer triger, nó sẽ gửi Event TIME_OUT_SIG đến Active Object
  21:Core/Src/ActiveObject/Src/Blinky1.c ****      * khi đó led sẽ Toggle đúng chu kỳ đã được cấu hình cho timer
  22:Core/Src/ActiveObject/Src/Blinky1.c ****      */
  23:Core/Src/ActiveObject/Src/Blinky1.c ****     case TIME_OUT_SIG:
  24:Core/Src/ActiveObject/Src/Blinky1.c ****       HAL_GPIO_TogglePin(GPIOD, GPIO_PIN_14);
  46              		.loc 1 24 7 is_stmt 1 view .LVU5
  47 000a 4FF48041 		mov	r1, #16384
  48              	.LVL1:
  49              		.loc 1 24 7 is_stmt 0 view .LVU6
  50 000e 0448     		ldr	r0, .L6
  51              	.LVL2:
  52              		.loc 1 24 7 view .LVU7
  53 0010 FFF7FEFF 		bl	HAL_GPIO_TogglePin
  54              	.LVL3:
  25:Core/Src/ActiveObject/Src/Blinky1.c ****       break;
  55              		.loc 1 25 7 is_stmt 1 view .LVU8
  26:Core/Src/ActiveObject/Src/Blinky1.c ****   
  27:Core/Src/ActiveObject/Src/Blinky1.c ****     default:
  28:Core/Src/ActiveObject/Src/Blinky1.c ****       break;
  29:Core/Src/ActiveObject/Src/Blinky1.c ****   }
  30:Core/Src/ActiveObject/Src/Blinky1.c **** }
  56              		.loc 1 30 1 is_stmt 0 view .LVU9
  57 0014 02E0     		b	.L1
  58              	.LVL4:
  59              	.L2:
  16:Core/Src/ActiveObject/Src/Blinky1.c ****       break;
  60              		.loc 1 16 7 is_stmt 1 view .LVU10
  61 0016 0348     		ldr	r0, .L6+4
  62              	.LVL5:
  16:Core/Src/ActiveObject/Src/Blinky1.c ****       break;
  63              		.loc 1 16 7 is_stmt 0 view .LVU11
  64 0018 FFF7FEFF 		bl	HAL_TIM_Base_Start_IT
  65              	.LVL6:
  17:Core/Src/ActiveObject/Src/Blinky1.c ****     /**
  66              		.loc 1 17 7 is_stmt 1 view .LVU12
  67              	.L1:
  68              		.loc 1 30 1 is_stmt 0 view .LVU13
  69 001c 08BD     		pop	{r3, pc}
  70              	.L7:
  71 001e 00BF     		.align	2
  72              	.L6:
  73 0020 000C0240 		.word	1073875968
  74 0024 00000000 		.word	htim7
  75              		.cfi_endproc
  76              	.LFE139:
  78              		.section	.text.Blinky1_ctor,"ax",%progbits
  79              		.align	1
  80              		.global	Blinky1_ctor
  81              		.syntax unified
  82              		.thumb
  83              		.thumb_func
ARM GAS  C:\Users\Lamp\AppData\Local\Temp\cc02uuZL.s 			page 3


  85              	Blinky1_ctor:
  86              	.LVL7:
  87              	.LFB140:
  31:Core/Src/ActiveObject/Src/Blinky1.c **** 
  32:Core/Src/ActiveObject/Src/Blinky1.c **** /**
  33:Core/Src/ActiveObject/Src/Blinky1.c ****  * Hàm này dùng để khởi tạo constructer
  34:Core/Src/ActiveObject/Src/Blinky1.c ****  * tức là gán hàm Blinky_dispatch vào vistual function là dispatch
  35:Core/Src/ActiveObject/Src/Blinky1.c ****  * của Active Object, khi đó Active Object của Blinky có thể gửi
  36:Core/Src/ActiveObject/Src/Blinky1.c ****  * các Event đến đúng dispatch function của nó.
  37:Core/Src/ActiveObject/Src/Blinky1.c ****  */
  38:Core/Src/ActiveObject/Src/Blinky1.c **** void Blinky1_ctor (Blinky1 * const self) {
  88              		.loc 1 38 42 is_stmt 1 view -0
  89              		.cfi_startproc
  90              		@ args = 0, pretend = 0, frame = 0
  91              		@ frame_needed = 0, uses_anonymous_args = 0
  92              		.loc 1 38 42 is_stmt 0 view .LVU15
  93 0000 08B5     		push	{r3, lr}
  94              	.LCFI1:
  95              		.cfi_def_cfa_offset 8
  96              		.cfi_offset 3, -8
  97              		.cfi_offset 14, -4
  39:Core/Src/ActiveObject/Src/Blinky1.c ****   Active_ctor (&self->super, (DispatchHandler) &Blinky_dispatch);
  98              		.loc 1 39 3 is_stmt 1 view .LVU16
  99 0002 0249     		ldr	r1, .L10
 100 0004 FFF7FEFF 		bl	Active_ctor
 101              	.LVL8:
  40:Core/Src/ActiveObject/Src/Blinky1.c **** }
 102              		.loc 1 40 1 is_stmt 0 view .LVU17
 103 0008 08BD     		pop	{r3, pc}
 104              	.L11:
 105 000a 00BF     		.align	2
 106              	.L10:
 107 000c 00000000 		.word	Blinky_dispatch
 108              		.cfi_endproc
 109              	.LFE140:
 111              		.text
 112              	.Letext0:
 113              		.file 2 "C:/ARM GNU Toolchain/arm-none-eabi/include/machine/_default_types.h"
 114              		.file 3 "C:/ARM GNU Toolchain/arm-none-eabi/include/sys/_stdint.h"
 115              		.file 4 "Drivers/CMSIS/Device/ST/STM32F4xx/Include/stm32f407xx.h"
 116              		.file 5 "Drivers/STM32F4xx_HAL_Driver/Inc/stm32f4xx_hal_def.h"
 117              		.file 6 "Drivers/STM32F4xx_HAL_Driver/Inc/stm32f4xx_hal_dma.h"
 118              		.file 7 "Drivers/STM32F4xx_HAL_Driver/Inc/stm32f4xx_hal_tim.h"
 119              		.file 8 "ThirdParty/FreeRTOS/portable/GCC/ARM_CM4F/portmacro.h"
 120              		.file 9 "ThirdParty/FreeRTOS/include/FreeRTOS.h"
 121              		.file 10 "ThirdParty/FreeRTOS/include/task.h"
 122              		.file 11 "ThirdParty/FreeRTOS/include/queue.h"
 123              		.file 12 "Core/Src/ActiveObject/Inc/Active_Object.h"
 124              		.file 13 "Core/Src/ActiveObject/Inc/Blinky1.h"
 125              		.file 14 "Drivers/STM32F4xx_HAL_Driver/Inc/stm32f4xx_hal_gpio.h"
ARM GAS  C:\Users\Lamp\AppData\Local\Temp\cc02uuZL.s 			page 4

