ARM GAS  C:\Users\Lamp\AppData\Local\Temp\cckesbtP.s 			page 1


   1              		.cpu cortex-m4
   2              		.arch armv7e-m
   3              		.fpu fpv4-sp-d16
   4              		.eabi_attribute 27, 1
   5              		.eabi_attribute 28, 1
   6              		.eabi_attribute 20, 1
   7              		.eabi_attribute 21, 1
   8              		.eabi_attribute 23, 3
   9              		.eabi_attribute 24, 1
  10              		.eabi_attribute 25, 1
  11              		.eabi_attribute 26, 1
  12              		.eabi_attribute 30, 1
  13              		.eabi_attribute 34, 1
  14              		.eabi_attribute 18, 4
  15              		.file	"Button.c"
  16              		.text
  17              	.Ltext0:
  18              		.cfi_sections	.debug_frame
  19              		.file 1 "Core/Src/ActiveObject/Src/Button.c"
  20              		.section	.text.initial,"ax",%progbits
  21              		.align	1
  22              		.syntax unified
  23              		.thumb
  24              		.thumb_func
  26              	initial:
  27              	.LVL0:
  28              	.LFB139:
   1:Core/Src/ActiveObject/Src/Button.c **** #include "Button.h"
   2:Core/Src/ActiveObject/Src/Button.c **** 
   3:Core/Src/ActiveObject/Src/Button.c **** struct Active * AO_button;
   4:Core/Src/ActiveObject/Src/Button.c **** struct Button * button;
   5:Core/Src/ActiveObject/Src/Button.c **** 
   6:Core/Src/ActiveObject/Src/Button.c **** static Status initial (struct Button * const self, Event const * const event) {
  29              		.loc 1 6 79 view -0
  30              		.cfi_startproc
  31              		@ args = 0, pretend = 0, frame = 0
  32              		@ frame_needed = 0, uses_anonymous_args = 0
  33              		@ link register save eliminated.
   7:Core/Src/ActiveObject/Src/Button.c ****   Status status = TRAN_STATUS;
  34              		.loc 1 7 3 view .LVU1
   8:Core/Src/ActiveObject/Src/Button.c ****   self->super.handler = (StateHandler) self->active;
  35              		.loc 1 8 3 view .LVU2
  36              		.loc 1 8 44 is_stmt 0 view .LVU3
  37 0000 D0F8D030 		ldr	r3, [r0, #208]
  38              		.loc 1 8 23 view .LVU4
  39 0004 C0F8B030 		str	r3, [r0, #176]
   9:Core/Src/ActiveObject/Src/Button.c ****   return status;
  40              		.loc 1 9 3 is_stmt 1 view .LVU5
  10:Core/Src/ActiveObject/Src/Button.c **** }
  41              		.loc 1 10 1 is_stmt 0 view .LVU6
  42 0008 0020     		movs	r0, #0
  43              	.LVL1:
  44              		.loc 1 10 1 view .LVU7
  45 000a 7047     		bx	lr
  46              		.cfi_endproc
  47              	.LFE139:
  49              		.section	.text.constructor,"ax",%progbits
ARM GAS  C:\Users\Lamp\AppData\Local\Temp\cckesbtP.s 			page 2


  50              		.align	1
  51              		.global	constructor
  52              		.syntax unified
  53              		.thumb
  54              		.thumb_func
  56              	constructor:
  57              	.LVL2:
  58              	.LFB141:
  11:Core/Src/ActiveObject/Src/Button.c **** 
  12:Core/Src/ActiveObject/Src/Button.c **** static Status active (struct Button * const self, Event const * const event) {
  13:Core/Src/ActiveObject/Src/Button.c ****   Status status;
  14:Core/Src/ActiveObject/Src/Button.c ****   
  15:Core/Src/ActiveObject/Src/Button.c ****   switch (event->signal) {
  16:Core/Src/ActiveObject/Src/Button.c ****     case ENTRY_SIG:
  17:Core/Src/ActiveObject/Src/Button.c ****       HAL_NVIC_EnableIRQ(EXTI0_IRQn);
  18:Core/Src/ActiveObject/Src/Button.c ****       status = TRAN_STATUS;
  19:Core/Src/ActiveObject/Src/Button.c ****       break;
  20:Core/Src/ActiveObject/Src/Button.c **** 
  21:Core/Src/ActiveObject/Src/Button.c ****     case BUTTON_PRESSED_SIG:
  22:Core/Src/ActiveObject/Src/Button.c ****       HAL_GPIO_WritePin(GPIOD, GPIO_PIN_14, GPIO_PIN_SET);
  23:Core/Src/ActiveObject/Src/Button.c ****       status = HANDLED_STATUS;
  24:Core/Src/ActiveObject/Src/Button.c ****       break;
  25:Core/Src/ActiveObject/Src/Button.c **** 
  26:Core/Src/ActiveObject/Src/Button.c ****     case BUTTON_RELEASED_SIG:
  27:Core/Src/ActiveObject/Src/Button.c ****       HAL_GPIO_WritePin(GPIOD, GPIO_PIN_14, GPIO_PIN_RESET);
  28:Core/Src/ActiveObject/Src/Button.c ****       status = HANDLED_STATUS;
  29:Core/Src/ActiveObject/Src/Button.c ****       break;
  30:Core/Src/ActiveObject/Src/Button.c **** 
  31:Core/Src/ActiveObject/Src/Button.c ****     case EXIT_SIG:
  32:Core/Src/ActiveObject/Src/Button.c ****       status = HANDLED_STATUS;
  33:Core/Src/ActiveObject/Src/Button.c ****     default:
  34:Core/Src/ActiveObject/Src/Button.c ****       status = IGNORED_STATUS;
  35:Core/Src/ActiveObject/Src/Button.c ****       break;
  36:Core/Src/ActiveObject/Src/Button.c ****   }
  37:Core/Src/ActiveObject/Src/Button.c **** 
  38:Core/Src/ActiveObject/Src/Button.c ****   return status;
  39:Core/Src/ActiveObject/Src/Button.c **** }
  40:Core/Src/ActiveObject/Src/Button.c **** 
  41:Core/Src/ActiveObject/Src/Button.c **** /**
  42:Core/Src/ActiveObject/Src/Button.c ****  * Hàm này dùng để khởi tạo constructer
  43:Core/Src/ActiveObject/Src/Button.c ****  * tức là gán hàm Button_dispatch vào vistual function là dispatch
  44:Core/Src/ActiveObject/Src/Button.c ****  * của Active Object, khi đó Active Object của Button có thể gửi
  45:Core/Src/ActiveObject/Src/Button.c ****  * các Event đến đúng dispatch function của nó.
  46:Core/Src/ActiveObject/Src/Button.c ****  */
  47:Core/Src/ActiveObject/Src/Button.c **** void constructor (struct Button * const self) {
  59              		.loc 1 47 47 is_stmt 1 view -0
  60              		.cfi_startproc
  61              		@ args = 0, pretend = 0, frame = 0
  62              		@ frame_needed = 0, uses_anonymous_args = 0
  63              		.loc 1 47 47 is_stmt 0 view .LVU9
  64 0000 10B5     		push	{r4, lr}
  65              	.LCFI0:
  66              		.cfi_def_cfa_offset 8
  67              		.cfi_offset 4, -8
  68              		.cfi_offset 14, -4
  69 0002 0446     		mov	r4, r0
  48:Core/Src/ActiveObject/Src/Button.c ****   self->initial = &initial;
ARM GAS  C:\Users\Lamp\AppData\Local\Temp\cckesbtP.s 			page 3


  70              		.loc 1 48 3 is_stmt 1 view .LVU10
  71              		.loc 1 48 17 is_stmt 0 view .LVU11
  72 0004 0649     		ldr	r1, .L4
  73 0006 C0F8CC10 		str	r1, [r0, #204]
  49:Core/Src/ActiveObject/Src/Button.c ****   self->active = &active;
  74              		.loc 1 49 3 is_stmt 1 view .LVU12
  75              		.loc 1 49 16 is_stmt 0 view .LVU13
  76 000a 064B     		ldr	r3, .L4+4
  77 000c C0F8D030 		str	r3, [r0, #208]
  50:Core/Src/ActiveObject/Src/Button.c **** 
  51:Core/Src/ActiveObject/Src/Button.c ****   Active_Constructor(&self->super, (StateHandler) &initial);
  78              		.loc 1 51 3 is_stmt 1 view .LVU14
  79 0010 FFF7FEFF 		bl	Active_Constructor
  80              	.LVL3:
  52:Core/Src/ActiveObject/Src/Button.c **** 
  53:Core/Src/ActiveObject/Src/Button.c ****   AO_button = &self->super;
  81              		.loc 1 53 3 view .LVU15
  82              		.loc 1 53 13 is_stmt 0 view .LVU16
  83 0014 044B     		ldr	r3, .L4+8
  84 0016 1C60     		str	r4, [r3]
  54:Core/Src/ActiveObject/Src/Button.c ****   button = self;
  85              		.loc 1 54 3 is_stmt 1 view .LVU17
  86              		.loc 1 54 10 is_stmt 0 view .LVU18
  87 0018 044B     		ldr	r3, .L4+12
  88 001a 1C60     		str	r4, [r3]
  55:Core/Src/ActiveObject/Src/Button.c **** }
  89              		.loc 1 55 1 view .LVU19
  90 001c 10BD     		pop	{r4, pc}
  91              	.LVL4:
  92              	.L5:
  93              		.loc 1 55 1 view .LVU20
  94 001e 00BF     		.align	2
  95              	.L4:
  96 0020 00000000 		.word	initial
  97 0024 00000000 		.word	active
  98 0028 00000000 		.word	AO_button
  99 002c 00000000 		.word	button
 100              		.cfi_endproc
 101              	.LFE141:
 103              		.section	.text.active,"ax",%progbits
 104              		.align	1
 105              		.syntax unified
 106              		.thumb
 107              		.thumb_func
 109              	active:
 110              	.LVL5:
 111              	.LFB140:
  12:Core/Src/ActiveObject/Src/Button.c ****   Status status;
 112              		.loc 1 12 78 is_stmt 1 view -0
 113              		.cfi_startproc
 114              		@ args = 0, pretend = 0, frame = 0
 115              		@ frame_needed = 0, uses_anonymous_args = 0
  12:Core/Src/ActiveObject/Src/Button.c ****   Status status;
 116              		.loc 1 12 78 is_stmt 0 view .LVU22
 117 0000 08B5     		push	{r3, lr}
 118              	.LCFI1:
 119              		.cfi_def_cfa_offset 8
ARM GAS  C:\Users\Lamp\AppData\Local\Temp\cckesbtP.s 			page 4


 120              		.cfi_offset 3, -8
 121              		.cfi_offset 14, -4
  13:Core/Src/ActiveObject/Src/Button.c ****   
 122              		.loc 1 13 3 is_stmt 1 view .LVU23
  15:Core/Src/ActiveObject/Src/Button.c ****     case ENTRY_SIG:
 123              		.loc 1 15 3 view .LVU24
  15:Core/Src/ActiveObject/Src/Button.c ****     case ENTRY_SIG:
 124              		.loc 1 15 16 is_stmt 0 view .LVU25
 125 0002 0B88     		ldrh	r3, [r1]
  15:Core/Src/ActiveObject/Src/Button.c ****     case ENTRY_SIG:
 126              		.loc 1 15 3 view .LVU26
 127 0004 032B     		cmp	r3, #3
 128 0006 08D0     		beq	.L7
 129 0008 042B     		cmp	r3, #4
 130 000a 0ED0     		beq	.L8
 131 000c 012B     		cmp	r3, #1
 132 000e 14D1     		bne	.L10
  17:Core/Src/ActiveObject/Src/Button.c ****       status = TRAN_STATUS;
 133              		.loc 1 17 7 is_stmt 1 view .LVU27
 134 0010 0620     		movs	r0, #6
 135              	.LVL6:
  17:Core/Src/ActiveObject/Src/Button.c ****       status = TRAN_STATUS;
 136              		.loc 1 17 7 is_stmt 0 view .LVU28
 137 0012 FFF7FEFF 		bl	HAL_NVIC_EnableIRQ
 138              	.LVL7:
  18:Core/Src/ActiveObject/Src/Button.c ****       break;
 139              		.loc 1 18 7 is_stmt 1 view .LVU29
  19:Core/Src/ActiveObject/Src/Button.c **** 
 140              		.loc 1 19 7 view .LVU30
  18:Core/Src/ActiveObject/Src/Button.c ****       break;
 141              		.loc 1 18 14 is_stmt 0 view .LVU31
 142 0016 0020     		movs	r0, #0
 143              	.LVL8:
 144              	.L9:
  38:Core/Src/ActiveObject/Src/Button.c **** }
 145              		.loc 1 38 3 is_stmt 1 view .LVU32
  39:Core/Src/ActiveObject/Src/Button.c **** 
 146              		.loc 1 39 1 is_stmt 0 view .LVU33
 147 0018 08BD     		pop	{r3, pc}
 148              	.LVL9:
 149              	.L7:
  22:Core/Src/ActiveObject/Src/Button.c ****       status = HANDLED_STATUS;
 150              		.loc 1 22 7 is_stmt 1 view .LVU34
 151 001a 0122     		movs	r2, #1
 152 001c 4FF48041 		mov	r1, #16384
 153              	.LVL10:
  22:Core/Src/ActiveObject/Src/Button.c ****       status = HANDLED_STATUS;
 154              		.loc 1 22 7 is_stmt 0 view .LVU35
 155 0020 0748     		ldr	r0, .L12
 156              	.LVL11:
  22:Core/Src/ActiveObject/Src/Button.c ****       status = HANDLED_STATUS;
 157              		.loc 1 22 7 view .LVU36
 158 0022 FFF7FEFF 		bl	HAL_GPIO_WritePin
 159              	.LVL12:
  23:Core/Src/ActiveObject/Src/Button.c ****       break;
 160              		.loc 1 23 7 is_stmt 1 view .LVU37
  24:Core/Src/ActiveObject/Src/Button.c **** 
ARM GAS  C:\Users\Lamp\AppData\Local\Temp\cckesbtP.s 			page 5


 161              		.loc 1 24 7 view .LVU38
  23:Core/Src/ActiveObject/Src/Button.c ****       break;
 162              		.loc 1 23 14 is_stmt 0 view .LVU39
 163 0026 0120     		movs	r0, #1
  24:Core/Src/ActiveObject/Src/Button.c **** 
 164              		.loc 1 24 7 view .LVU40
 165 0028 F6E7     		b	.L9
 166              	.LVL13:
 167              	.L8:
  27:Core/Src/ActiveObject/Src/Button.c ****       status = HANDLED_STATUS;
 168              		.loc 1 27 7 is_stmt 1 view .LVU41
 169 002a 0022     		movs	r2, #0
 170 002c 4FF48041 		mov	r1, #16384
 171              	.LVL14:
  27:Core/Src/ActiveObject/Src/Button.c ****       status = HANDLED_STATUS;
 172              		.loc 1 27 7 is_stmt 0 view .LVU42
 173 0030 0348     		ldr	r0, .L12
 174              	.LVL15:
  27:Core/Src/ActiveObject/Src/Button.c ****       status = HANDLED_STATUS;
 175              		.loc 1 27 7 view .LVU43
 176 0032 FFF7FEFF 		bl	HAL_GPIO_WritePin
 177              	.LVL16:
  28:Core/Src/ActiveObject/Src/Button.c ****       break;
 178              		.loc 1 28 7 is_stmt 1 view .LVU44
  29:Core/Src/ActiveObject/Src/Button.c **** 
 179              		.loc 1 29 7 view .LVU45
  28:Core/Src/ActiveObject/Src/Button.c ****       break;
 180              		.loc 1 28 14 is_stmt 0 view .LVU46
 181 0036 0120     		movs	r0, #1
  29:Core/Src/ActiveObject/Src/Button.c **** 
 182              		.loc 1 29 7 view .LVU47
 183 0038 EEE7     		b	.L9
 184              	.LVL17:
 185              	.L10:
  15:Core/Src/ActiveObject/Src/Button.c ****     case ENTRY_SIG:
 186              		.loc 1 15 3 view .LVU48
 187 003a 0220     		movs	r0, #2
 188              	.LVL18:
  15:Core/Src/ActiveObject/Src/Button.c ****     case ENTRY_SIG:
 189              		.loc 1 15 3 view .LVU49
 190 003c ECE7     		b	.L9
 191              	.L13:
 192 003e 00BF     		.align	2
 193              	.L12:
 194 0040 000C0240 		.word	1073875968
 195              		.cfi_endproc
 196              	.LFE140:
 198              		.global	Button
 199              		.section	.rodata.Button,"a"
 200              		.align	2
 203              	Button:
 204 0000 00000000 		.word	constructor
 205              		.global	button
 206              		.section	.bss.button,"aw",%nobits
 207              		.align	2
 210              	button:
 211 0000 00000000 		.space	4
ARM GAS  C:\Users\Lamp\AppData\Local\Temp\cckesbtP.s 			page 6


 212              		.global	AO_button
 213              		.section	.bss.AO_button,"aw",%nobits
 214              		.align	2
 217              	AO_button:
 218 0000 00000000 		.space	4
 219              		.text
 220              	.Letext0:
 221              		.file 2 "Drivers/CMSIS/Device/ST/STM32F4xx/Include/stm32f407xx.h"
 222              		.file 3 "C:/ARM GNU Toolchain/arm-none-eabi/include/machine/_default_types.h"
 223              		.file 4 "C:/ARM GNU Toolchain/arm-none-eabi/include/sys/_stdint.h"
 224              		.file 5 "Drivers/STM32F4xx_HAL_Driver/Inc/stm32f4xx_hal_gpio.h"
 225              		.file 6 "ThirdParty/FreeRTOS/portable/GCC/ARM_CM4F/portmacro.h"
 226              		.file 7 "ThirdParty/FreeRTOS/include/FreeRTOS.h"
 227              		.file 8 "ThirdParty/FreeRTOS/include/task.h"
 228              		.file 9 "ThirdParty/FreeRTOS/include/queue.h"
 229              		.file 10 "Core/Src/ActiveObject/Inc/Active_Object.h"
 230              		.file 11 "Core/Src/ActiveObject/Inc/Button.h"
 231              		.file 12 "Drivers/STM32F4xx_HAL_Driver/Inc/stm32f4xx_hal_cortex.h"
ARM GAS  C:\Users\Lamp\AppData\Local\Temp\cckesbtP.s 			page 7


DEFINED SYMBOLS
                            *ABS*:00000000 Button.c
C:\Users\Lamp\AppData\Local\Temp\cckesbtP.s:21     .text.initial:00000000 $t
C:\Users\Lamp\AppData\Local\Temp\cckesbtP.s:26     .text.initial:00000000 initial
C:\Users\Lamp\AppData\Local\Temp\cckesbtP.s:50     .text.constructor:00000000 $t
C:\Users\Lamp\AppData\Local\Temp\cckesbtP.s:56     .text.constructor:00000000 constructor
C:\Users\Lamp\AppData\Local\Temp\cckesbtP.s:96     .text.constructor:00000020 $d
C:\Users\Lamp\AppData\Local\Temp\cckesbtP.s:109    .text.active:00000000 active
C:\Users\Lamp\AppData\Local\Temp\cckesbtP.s:217    .bss.AO_button:00000000 AO_button
C:\Users\Lamp\AppData\Local\Temp\cckesbtP.s:210    .bss.button:00000000 button
C:\Users\Lamp\AppData\Local\Temp\cckesbtP.s:104    .text.active:00000000 $t
C:\Users\Lamp\AppData\Local\Temp\cckesbtP.s:194    .text.active:00000040 $d
C:\Users\Lamp\AppData\Local\Temp\cckesbtP.s:203    .rodata.Button:00000000 Button
C:\Users\Lamp\AppData\Local\Temp\cckesbtP.s:200    .rodata.Button:00000000 $d
C:\Users\Lamp\AppData\Local\Temp\cckesbtP.s:207    .bss.button:00000000 $d
C:\Users\Lamp\AppData\Local\Temp\cckesbtP.s:214    .bss.AO_button:00000000 $d

UNDEFINED SYMBOLS
Active_Constructor
HAL_NVIC_EnableIRQ
HAL_GPIO_WritePin
