ARM GAS  C:\Users\Lamp\AppData\Local\Temp\ccxlnlnh.s 			page 1


   1              		.cpu cortex-m4
   2              		.arch armv7e-m
   3              		.fpu fpv4-sp-d16
   4              		.eabi_attribute 27, 1
   5              		.eabi_attribute 28, 1
   6              		.eabi_attribute 20, 1
   7              		.eabi_attribute 21, 1
   8              		.eabi_attribute 23, 3
   9              		.eabi_attribute 24, 1
  10              		.eabi_attribute 25, 1
  11              		.eabi_attribute 26, 1
  12              		.eabi_attribute 30, 1
  13              		.eabi_attribute 34, 1
  14              		.eabi_attribute 18, 4
  15              		.file	"led..c"
  16              		.text
  17              	.Ltext0:
  18              		.cfi_sections	.debug_frame
  19              		.file 1 "Core/Src/led..c"
  20              		.section	.text.Led_Init,"ax",%progbits
  21              		.align	1
  22              		.global	Led_Init
  23              		.syntax unified
  24              		.thumb
  25              		.thumb_func
  27              	Led_Init:
  28              	.LVL0:
  29              	.LFB134:
   1:Core/Src/led..c **** #include "led.h"
   2:Core/Src/led..c **** #include "Events.h"
   3:Core/Src/led..c **** 
   4:Core/Src/led..c **** void Led_Init(Led *const self, uint16_t pin, uint32_t delay_ms) {
  30              		.loc 1 4 65 view -0
  31              		.cfi_startproc
  32              		@ args = 0, pretend = 0, frame = 0
  33              		@ frame_needed = 0, uses_anonymous_args = 0
  34              		@ link register save eliminated.
   5:Core/Src/led..c ****     self->pin = pin;
  35              		.loc 1 5 5 view .LVU1
  36              		.loc 1 5 15 is_stmt 0 view .LVU2
  37 0000 0180     		strh	r1, [r0]	@ movhi
   6:Core/Src/led..c ****     self->delay_ms = delay_ms;
  38              		.loc 1 6 5 is_stmt 1 view .LVU3
  39              		.loc 1 6 20 is_stmt 0 view .LVU4
  40 0002 4260     		str	r2, [r0, #4]
   7:Core/Src/led..c **** }
  41              		.loc 1 7 1 view .LVU5
  42 0004 7047     		bx	lr
  43              		.cfi_endproc
  44              	.LFE134:
  46              		.section	.text.Led_HandleEvent,"ax",%progbits
  47              		.align	1
  48              		.global	Led_HandleEvent
  49              		.syntax unified
  50              		.thumb
  51              		.thumb_func
  53              	Led_HandleEvent:
ARM GAS  C:\Users\Lamp\AppData\Local\Temp\ccxlnlnh.s 			page 2


  54              	.LVL1:
  55              	.LFB135:
   8:Core/Src/led..c **** 
   9:Core/Src/led..c **** void Led_HandleEvent(Led *const self, const Event *event) {
  56              		.loc 1 9 59 is_stmt 1 view -0
  57              		.cfi_startproc
  58              		@ args = 0, pretend = 0, frame = 0
  59              		@ frame_needed = 0, uses_anonymous_args = 0
  60              		.loc 1 9 59 is_stmt 0 view .LVU7
  61 0000 08B5     		push	{r3, lr}
  62              	.LCFI0:
  63              		.cfi_def_cfa_offset 8
  64              		.cfi_offset 3, -8
  65              		.cfi_offset 14, -4
  10:Core/Src/led..c ****     switch (event->type) {
  66              		.loc 1 10 5 is_stmt 1 view .LVU8
  67              		.loc 1 10 18 is_stmt 0 view .LVU9
  68 0002 0B78     		ldrb	r3, [r1]	@ zero_extendqisi2
  69              		.loc 1 10 5 view .LVU10
  70 0004 022B     		cmp	r3, #2
  71 0006 0AD0     		beq	.L3
  72 0008 032B     		cmp	r3, #3
  73 000a 02D0     		beq	.L4
  74 000c 012B     		cmp	r3, #1
  75 000e 0BD0     		beq	.L8
  76              	.LVL2:
  77              	.L2:
  11:Core/Src/led..c ****         case EVENT_ENTER:
  12:Core/Src/led..c ****             // Xử lý khi bắt đầu vào chế độ mới
  13:Core/Src/led..c ****             HAL_GPIO_WritePin(GPIOD, self->pin, Set);
  14:Core/Src/led..c ****             break;
  15:Core/Src/led..c **** 
  16:Core/Src/led..c ****         case EVENT_LED_TOGGLE:
  17:Core/Src/led..c ****             HAL_GPIO_TogglePin(GPIOD, self->pin);
  18:Core/Src/led..c ****             break;
  19:Core/Src/led..c **** 
  20:Core/Src/led..c ****         case EVENT_BUTTON_RELEASED:
  21:Core/Src/led..c ****             // Xử lý khi thoát khỏi chế độ hiện tại
  22:Core/Src/led..c ****             // LED sẽ tắt khi nhận được sự kiện thoát
  23:Core/Src/led..c ****             HAL_GPIO_WritePin(GPIOD, self->pin, Reset);
  24:Core/Src/led..c ****             break;
  25:Core/Src/led..c **** 
  26:Core/Src/led..c ****         default:
  27:Core/Src/led..c ****             break;
  28:Core/Src/led..c ****     }
  29:Core/Src/led..c **** }...
  78              		.loc 1 29 1 view .LVU11
  79 0010 08BD     		pop	{r3, pc}
  80              	.LVL3:
  81              	.L4:
  13:Core/Src/led..c ****             HAL_GPIO_WritePin(GPIOD, self->pin, Set);
  82              		.loc 1 13 13 is_stmt 1 view .LVU12
  83 0012 0122     		movs	r2, #1
  84 0014 0188     		ldrh	r1, [r0]
  85              	.LVL4:
  13:Core/Src/led..c ****             HAL_GPIO_WritePin(GPIOD, self->pin, Set);
  86              		.loc 1 13 13 is_stmt 0 view .LVU13
ARM GAS  C:\Users\Lamp\AppData\Local\Temp\ccxlnlnh.s 			page 3


  87 0016 0748     		ldr	r0, .L9
  88              	.LVL5:
  13:Core/Src/led..c ****             HAL_GPIO_WritePin(GPIOD, self->pin, Set);
  89              		.loc 1 13 13 view .LVU14
  90 0018 FFF7FEFF 		bl	HAL_GPIO_WritePin
  91              	.LVL6:
  14:Core/Src/led..c ****             break;
  92              		.loc 1 14 13 is_stmt 1 view .LVU15
  93 001c F8E7     		b	.L2
  94              	.LVL7:
  95              	.L3:
  17:Core/Src/led..c ****             HAL_GPIO_TogglePin(GPIOD, self->pin);
  96              		.loc 1 17 13 view .LVU16
  97 001e 0188     		ldrh	r1, [r0]
  98              	.LVL8:
  17:Core/Src/led..c ****             HAL_GPIO_TogglePin(GPIOD, self->pin);
  99              		.loc 1 17 13 is_stmt 0 view .LVU17
 100 0020 0448     		ldr	r0, .L9
 101              	.LVL9:
  17:Core/Src/led..c ****             HAL_GPIO_TogglePin(GPIOD, self->pin);
 102              		.loc 1 17 13 view .LVU18
 103 0022 FFF7FEFF 		bl	HAL_GPIO_TogglePin
 104              	.LVL10:
  18:Core/Src/led..c ****             break;
 105              		.loc 1 18 13 is_stmt 1 view .LVU19
 106 0026 F3E7     		b	.L2
 107              	.LVL11:
 108              	.L8:
  23:Core/Src/led..c ****             HAL_GPIO_WritePin(GPIOD, self->pin, Reset);
 109              		.loc 1 23 13 view .LVU20
 110 0028 0022     		movs	r2, #0
 111 002a 0188     		ldrh	r1, [r0]
 112              	.LVL12:
  23:Core/Src/led..c ****             HAL_GPIO_WritePin(GPIOD, self->pin, Reset);
 113              		.loc 1 23 13 is_stmt 0 view .LVU21
 114 002c 0148     		ldr	r0, .L9
 115              	.LVL13:
  23:Core/Src/led..c ****             HAL_GPIO_WritePin(GPIOD, self->pin, Reset);
 116              		.loc 1 23 13 view .LVU22
 117 002e FFF7FEFF 		bl	HAL_GPIO_WritePin
 118              	.LVL14:
  24:Core/Src/led..c ****             break;
 119              		.loc 1 24 13 is_stmt 1 view .LVU23
 120              		.loc 1 29 1 is_stmt 0 view .LVU24
 121 0032 EDE7     		b	.L2
 122              	.L10:
 123              		.align	2
 124              	.L9:
 125 0034 000C0240 		.word	1073875968
 126              		.cfi_endproc
 127              	.LFE135:
 129              		.text
 130              	.Letext0:
 131              		.file 2 "C:\\ST\\STM32CubeCLT_1.16.0\\GNU-tools-for-STM32\\bin\\../lib/gcc/arm-none-eabi/12.3.1/..
 132              		.file 3 "C:\\ST\\STM32CubeCLT_1.16.0\\GNU-tools-for-STM32\\bin\\../lib/gcc/arm-none-eabi/12.3.1/..
 133              		.file 4 "Drivers/CMSIS/Device/ST/STM32F4xx/Include/stm32f407xx.h"
 134              		.file 5 "Drivers/STM32F4xx_HAL_Driver/Inc/stm32f4xx_hal_gpio.h"
ARM GAS  C:\Users\Lamp\AppData\Local\Temp\ccxlnlnh.s 			page 4


 135              		.file 6 "Core/Inc/Events.h"
 136              		.file 7 "Core/Inc/led.h"
ARM GAS  C:\Users\Lamp\AppData\Local\Temp\ccxlnlnh.s 			page 5


DEFINED SYMBOLS
                            *ABS*:00000000 led..c
C:\Users\Lamp\AppData\Local\Temp\ccxlnlnh.s:21     .text.Led_Init:00000000 $t
C:\Users\Lamp\AppData\Local\Temp\ccxlnlnh.s:27     .text.Led_Init:00000000 Led_Init
C:\Users\Lamp\AppData\Local\Temp\ccxlnlnh.s:47     .text.Led_HandleEvent:00000000 $t
C:\Users\Lamp\AppData\Local\Temp\ccxlnlnh.s:53     .text.Led_HandleEvent:00000000 Led_HandleEvent
C:\Users\Lamp\AppData\Local\Temp\ccxlnlnh.s:125    .text.Led_HandleEvent:00000034 $d

UNDEFINED SYMBOLS
HAL_GPIO_WritePin
HAL_GPIO_TogglePin
