ARM GAS  C:\Users\Lamp\AppData\Local\Temp\ccHAX8S0.s 			page 1


   1              		.cpu cortex-m4
   2              		.arch armv7e-m
   3              		.fpu fpv4-sp-d16
   4              		.eabi_attribute 27, 1
   5              		.eabi_attribute 28, 1
   6              		.eabi_attribute 20, 1
   7              		.eabi_attribute 21, 1
   8              		.eabi_attribute 23, 3
   9              		.eabi_attribute 24, 1
  10              		.eabi_attribute 25, 1
  11              		.eabi_attribute 26, 1
  12              		.eabi_attribute 30, 1
  13              		.eabi_attribute 34, 1
  14              		.eabi_attribute 18, 4
  15              		.file	"main.c"
  16              		.text
  17              	.Ltext0:
  18              		.cfi_sections	.debug_frame
  19              		.file 1 "Core/Src/main.c"
  20              		.section	.text.main,"ax",%progbits
  21              		.align	1
  22              		.global	main
  23              		.syntax unified
  24              		.thumb
  25              		.thumb_func
  27              	main:
  28              	.LFB139:
   1:Core/Src/main.c **** #include "main.h"
   2:Core/Src/main.c **** 
   3:Core/Src/main.c **** 
   4:Core/Src/main.c **** static struct Blinky blinky;
   5:Core/Src/main.c **** static struct Active * blinky_AO = &blinky.super;
   6:Core/Src/main.c **** 
   7:Core/Src/main.c **** 
   8:Core/Src/main.c **** static struct Button button;
   9:Core/Src/main.c **** static struct Active * button_AO = &button.super;
  10:Core/Src/main.c **** 
  11:Core/Src/main.c **** 
  12:Core/Src/main.c **** int main(void) {
  29              		.loc 1 12 16 view -0
  30              		.cfi_startproc
  31              		@ args = 0, pretend = 0, frame = 0
  32              		@ frame_needed = 0, uses_anonymous_args = 0
  33 0000 38B5     		push	{r3, r4, r5, lr}
  34              	.LCFI0:
  35              		.cfi_def_cfa_offset 16
  36              		.cfi_offset 3, -16
  37              		.cfi_offset 4, -12
  38              		.cfi_offset 5, -8
  39              		.cfi_offset 14, -4
  13:Core/Src/main.c ****   HAL_Init();
  40              		.loc 1 13 3 view .LVU1
  41 0002 FFF7FEFF 		bl	HAL_Init
  42              	.LVL0:
  14:Core/Src/main.c ****   SystemClock_Config();
  43              		.loc 1 14 3 view .LVU2
  44 0006 FFF7FEFF 		bl	SystemClock_Config
ARM GAS  C:\Users\Lamp\AppData\Local\Temp\ccHAX8S0.s 			page 2


  45              	.LVL1:
  15:Core/Src/main.c ****   MX_Periferal_Init();
  46              		.loc 1 15 3 view .LVU3
  47 000a FFF7FEFF 		bl	MX_Periferal_Init
  48              	.LVL2:
  16:Core/Src/main.c **** 
  17:Core/Src/main.c ****   Blinky.constructor(&blinky);
  49              		.loc 1 17 3 view .LVU4
  50              		.loc 1 17 9 is_stmt 0 view .LVU5
  51 000e 0E4B     		ldr	r3, .L3
  52 0010 1B68     		ldr	r3, [r3]
  53              		.loc 1 17 3 view .LVU6
  54 0012 0E4C     		ldr	r4, .L3+4
  55 0014 2046     		mov	r0, r4
  56 0016 9847     		blx	r3
  57              	.LVL3:
  18:Core/Src/main.c ****   blinky.super.start(blinky_AO, 2, 10, configMINIMAL_STACK_SIZE);
  58              		.loc 1 18 3 is_stmt 1 view .LVU7
  59              		.loc 1 18 15 is_stmt 0 view .LVU8
  60 0018 D4F8B850 		ldr	r5, [r4, #184]
  61              		.loc 1 18 3 view .LVU9
  62 001c 8223     		movs	r3, #130
  63 001e 0A22     		movs	r2, #10
  64 0020 0221     		movs	r1, #2
  65 0022 2046     		mov	r0, r4
  66 0024 A847     		blx	r5
  67              	.LVL4:
  19:Core/Src/main.c **** 
  20:Core/Src/main.c ****   Button.constructor(&button);
  68              		.loc 1 20 3 is_stmt 1 view .LVU10
  69              		.loc 1 20 9 is_stmt 0 view .LVU11
  70 0026 0A4B     		ldr	r3, .L3+8
  71 0028 1B68     		ldr	r3, [r3]
  72              		.loc 1 20 3 view .LVU12
  73 002a 0A4C     		ldr	r4, .L3+12
  74 002c 2046     		mov	r0, r4
  75 002e 9847     		blx	r3
  76              	.LVL5:
  21:Core/Src/main.c ****   button.super.start(button_AO, 3, 10, configMINIMAL_STACK_SIZE);
  77              		.loc 1 21 3 is_stmt 1 view .LVU13
  78              		.loc 1 21 15 is_stmt 0 view .LVU14
  79 0030 D4F8B850 		ldr	r5, [r4, #184]
  80              		.loc 1 21 3 view .LVU15
  81 0034 8223     		movs	r3, #130
  82 0036 0A22     		movs	r2, #10
  83 0038 0321     		movs	r1, #3
  84 003a 2046     		mov	r0, r4
  85 003c A847     		blx	r5
  86              	.LVL6:
  22:Core/Src/main.c **** 
  23:Core/Src/main.c ****   vTaskStartScheduler();
  87              		.loc 1 23 3 is_stmt 1 view .LVU16
  88 003e FFF7FEFF 		bl	vTaskStartScheduler
  89              	.LVL7:
  24:Core/Src/main.c **** }
  90              		.loc 1 24 1 is_stmt 0 view .LVU17
  91 0042 0020     		movs	r0, #0
ARM GAS  C:\Users\Lamp\AppData\Local\Temp\ccHAX8S0.s 			page 3


  92 0044 38BD     		pop	{r3, r4, r5, pc}
  93              	.L4:
  94 0046 00BF     		.align	2
  95              	.L3:
  96 0048 00000000 		.word	Blinky
  97 004c 00000000 		.word	blinky
  98 0050 00000000 		.word	Button
  99 0054 00000000 		.word	button
 100              		.cfi_endproc
 101              	.LFE139:
 103              		.section	.bss.button,"aw",%nobits
 104              		.align	2
 107              	button:
 108 0000 00000000 		.space	212
 108      00000000 
 108      00000000 
 108      00000000 
 108      00000000 
 109              		.section	.bss.blinky,"aw",%nobits
 110              		.align	2
 113              	blinky:
 114 0000 00000000 		.space	212
 114      00000000 
 114      00000000 
 114      00000000 
 114      00000000 
 115              		.text
 116              	.Letext0:
 117              		.file 2 "C:/ARM GNU Toolchain/arm-none-eabi/include/machine/_default_types.h"
 118              		.file 3 "C:/ARM GNU Toolchain/arm-none-eabi/include/sys/_stdint.h"
 119              		.file 4 "Drivers/STM32F4xx_HAL_Driver/Inc/stm32f4xx_hal_def.h"
 120              		.file 5 "ThirdParty/FreeRTOS/portable/GCC/ARM_CM4F/portmacro.h"
 121              		.file 6 "ThirdParty/FreeRTOS/include/FreeRTOS.h"
 122              		.file 7 "ThirdParty/FreeRTOS/include/task.h"
 123              		.file 8 "ThirdParty/FreeRTOS/include/queue.h"
 124              		.file 9 "Core/Src/ActiveObject/Inc/Active_Object.h"
 125              		.file 10 "Core/Src/ActiveObject/Inc/Button.h"
 126              		.file 11 "Core/Src/ActiveObject/Inc/Blinky.h"
 127              		.file 12 "Core/Src/Drivers/Inc/SysConfig.h"
 128              		.file 13 "Drivers/STM32F4xx_HAL_Driver/Inc/stm32f4xx_hal.h"
ARM GAS  C:\Users\Lamp\AppData\Local\Temp\ccHAX8S0.s 			page 4

